; Function Attrs: mustprogress nounwind uwtable
define hidden noundef i32 @_ZN15IntelJccErratum22jcc_erratum_taint_nodeEP8MachNodeP13PhaseRegAlloc(ptr noundef %0, ptr noundef %1) local_unnamed_addr #2 align 2 {
  %3 = getelementptr inbounds i8, ptr %0, i64 48
  %4 = load i32, ptr %3, align 8
  %5 = or i32 %4, 262144
  store i32 %5, ptr %3, align 8
  %6 = load ptr, ptr %0, align 8
  %7 = getelementptr inbounds i8, ptr %6, i64 168
  %8 = load ptr, ptr %7, align 8
  %9 = tail call noundef i32 %8(ptr noundef nonnull align 8 dereferenceable(64) %0, ptr noundef %1) #6
  ret i32 %9
}